; Function Attrs: mustprogress uwtable
define dso_local noundef ptr @_ZNKSt3__120__time_get_c_storageIwE7__weeksEv(ptr nonnull readnone align 8 captures(none) %0) unnamed_addr #2 align 2 personality ptr @__gxx_personality_v0 {
  %2 = load atomic i8, ptr @_ZGVZNKSt3__120__time_get_c_storageIwE7__weeksEvE5weeks acquire, align 8
  %3 = icmp eq i8 %2, 0
  br i1 %3, label %4, label %8, !prof !81

4:                                                ; preds = %1
  %5 = tail call i32 @__cxa_guard_acquire(ptr nonnull @_ZGVZNKSt3__120__time_get_c_storageIwE7__weeksEvE5weeks) #45
  %.not = icmp eq i32 %5, 0
  br i1 %.not, label %8, label %6

6:                                                ; preds = %4
  invoke fastcc void @_ZNSt3__1L11init_wweeksEv()
          to label %7 unwind label %10

7:                                                ; preds = %6
  store ptr @_ZZNSt3__1L11init_wweeksEvE5weeks, ptr @_ZZNKSt3__120__time_get_c_storageIwE7__weeksEvE5weeks, align 8, !tbaa !493
  tail call void @__cxa_guard_release(ptr nonnull @_ZGVZNKSt3__120__time_get_c_storageIwE7__weeksEvE5weeks) #45
  br label %8

8:                                                ; preds = %7, %4, %1
  %9 = load ptr, ptr @_ZZNKSt3__120__time_get_c_storageIwE7__weeksEvE5weeks, align 8, !tbaa !493
  ret ptr %9

10:                                               ; preds = %6
  %11 = landingpad { ptr, i32 }
          cleanup
  tail call void @__cxa_guard_abort(ptr nonnull @_ZGVZNKSt3__120__time_get_c_storageIwE7__weeksEvE5weeks) #45
  resume { ptr, i32 } %11
}